target datalayout = "e-m:e-p270:32:32-p271:32:32-p272:64:64-i64:64-i128:128-f80:128-n8:16:32:64-S128"
target triple = "x86_64-pc-linux-gnu"

%"class.cv::utils::trace::details::Region" = type <{ ptr, i32, [4 x i8] }>
%"class.cv::hfloat" = type { i16 }
%union.Cv32suf = type { i32 }
%"class.cv::Size_" = type { i32, i32 }

; Function Attrs: mustprogress nounwind uwtable
define linkonce_odr hidden void @_ZN2cv6hfloatC2Ef(ptr noundef nonnull align 2 dereferenceable(2) %0, float noundef %1) unnamed_addr #2 comdat align 2 {
  %3 = alloca ptr, align 8
  %4 = alloca float, align 4
  %5 = alloca %union.Cv32suf, align 4
  %6 = alloca i32, align 4
  %7 = alloca i32, align 4
  store ptr %0, ptr %3, align 8
  store float %1, ptr %4, align 4
  %8 = load ptr, ptr %3, align 8
  %9 = load float, ptr %4, align 4
  store float %9, ptr %5, align 4
  %10 = load i32, ptr %5, align 4
  %11 = and i32 %10, -2147483648
  store i32 %11, ptr %6, align 4
  %12 = load i32, ptr %6, align 4
  %13 = load i32, ptr %5, align 4
  %14 = xor i32 %13, %12
  store i32 %14, ptr %5, align 4
  %15 = load i32, ptr %5, align 4
  %16 = icmp uge i32 %15, 1199570944
  br i1 %16, label %17, label %23

17:                                               ; preds = %2
  %18 = load i32, ptr %5, align 4
  %19 = icmp ugt i32 %18, 2139095040
  %20 = select i1 %19, i32 32256, i32 31744
  %21 = trunc i32 %20 to i16
  %22 = getelementptr inbounds %"class.cv::hfloat", ptr %8, i32 0, i32 0
  store i16 %21, ptr %22, align 2
  br label %45

23:                                               ; preds = %2
  %24 = load i32, ptr %5, align 4
  %25 = icmp ult i32 %24, 947912704
  br i1 %25, label %26, label %33

26:                                               ; preds = %23
  %27 = load float, ptr %5, align 4
  %28 = fadd float %27, 5.000000e-01
  store float %28, ptr %5, align 4
  %29 = load i32, ptr %5, align 4
  %30 = sub i32 %29, 1056964608
  %31 = trunc i32 %30 to i16
  %32 = getelementptr inbounds %"class.cv::hfloat", ptr %8, i32 0, i32 0
  store i16 %31, ptr %32, align 2
  br label %44

33:                                               ; preds = %23
  %34 = load i32, ptr %5, align 4
  %35 = add i32 %34, -939520001
  store i32 %35, ptr %7, align 4
  %36 = load i32, ptr %7, align 4
  %37 = load i32, ptr %5, align 4
  %38 = lshr i32 %37, 13
  %39 = and i32 %38, 1
  %40 = add i32 %36, %39
  %41 = lshr i32 %40, 13
  %42 = trunc i32 %41 to i16
  %43 = getelementptr inbounds %"class.cv::hfloat", ptr %8, i32 0, i32 0
  store i16 %42, ptr %43, align 2
  br label %44

44:                                               ; preds = %33, %26
  br label %45

45:                                               ; preds = %44, %17
  %46 = getelementptr inbounds %"class.cv::hfloat", ptr %8, i32 0, i32 0
  %47 = load i16, ptr %46, align 2
  %48 = zext i16 %47 to i32
  %49 = load i32, ptr %6, align 4
  %50 = lshr i32 %49, 16
  %51 = or i32 %48, %50
  %52 = trunc i32 %51 to i16
  %53 = getelementptr inbounds %"class.cv::hfloat", ptr %8, i32 0, i32 0
  store i16 %52, ptr %53, align 2
  ret void
}

; Function Attrs: mustprogress uwtable
define internal i16 @_ZN2cvL13saturate_castINS_6hfloatEEET_a(i8 noundef signext %0) #0 {
  %2 = alloca %"class.cv::hfloat", align 2
  %3 = alloca i8, align 1
  store i8 %0, ptr %3, align 1
  %4 = load i8, ptr %3, align 1
  %5 = sitofp i8 %4 to float
  call void @_ZN2cv6hfloatC2Ef(ptr noundef nonnull align 2 dereferenceable(2) %2, float noundef %5)
  %6 = getelementptr inbounds %"class.cv::hfloat", ptr %2, i32 0, i32 0
  %7 = load i16, ptr %6, align 2
  ret i16 %7
}

; Function Attrs: mustprogress nounwind uwtable
define linkonce_odr hidden void @_ZN2cv5utils5trace7details6RegionD2Ev(ptr noundef nonnull align 8 dereferenceable(12) %0) unnamed_addr #2 comdat align 2 personality ptr @__gxx_personality_v0 {
  %2 = alloca ptr, align 8
  store ptr %0, ptr %2, align 8
  %3 = load ptr, ptr %2, align 8
  %4 = getelementptr inbounds %"class.cv::utils::trace::details::Region", ptr %3, i32 0, i32 1
  %5 = load i32, ptr %4, align 8
  %6 = icmp ne i32 %5, 0
  br i1 %6, label %7, label %9

7:                                                ; preds = %1
  invoke void @_ZN2cv5utils5trace7details6Region7destroyEv(ptr noundef nonnull align 8 dereferenceable(12) %3)
          to label %8 unwind label %10

8:                                                ; preds = %7
  br label %9

9:                                                ; preds = %8, %1
  ret void

10:                                               ; preds = %7
  %11 = landingpad { ptr, i32 }
          catch ptr null
  %12 = extractvalue { ptr, i32 } %11, 0
  call void @__clang_call_terminate(ptr %12) #12
  unreachable
}

; Function Attrs: mustprogress uwtable
define internal void @_ZN2cv12cpu_baselineL5cvt1_IaNS_6hfloatENS_12hal_baseline5v_regIfLi4EEEEEvPKT_mPT0_mNS_5Size_IiEE(ptr noundef %0, i64 noundef %1, ptr noundef %2, i64 noundef %3, i64 %4) #0 {
  %6 = alloca %"class.cv::Size_", align 4
  %7 = alloca ptr, align 8
  %8 = alloca i64, align 8
  %9 = alloca ptr, align 8
  %10 = alloca i64, align 8
  %11 = alloca i32, align 4
  %12 = alloca i32, align 4
  %13 = alloca %"class.cv::hfloat", align 2
  store i64 %4, ptr %6, align 4
  store ptr %0, ptr %7, align 8
  store i64 %1, ptr %8, align 8
  store ptr %2, ptr %9, align 8
  store i64 %3, ptr %10, align 8
  %14 = load i64, ptr %8, align 8
  %15 = udiv i64 %14, 1
  store i64 %15, ptr %8, align 8
  %16 = load i64, ptr %10, align 8
  %17 = udiv i64 %16, 2
  store i64 %17, ptr %10, align 8
  store i32 0, ptr %11, align 4
  br label %18

18:                                               ; preds = %45, %5
  %19 = load i32, ptr %11, align 4
  %20 = getelementptr inbounds %"class.cv::Size_", ptr %6, i32 0, i32 1
  %21 = load i32, ptr %20, align 4
  %22 = icmp slt i32 %19, %21
  br i1 %22, label %23, label %54

23:                                               ; preds = %18
  store i32 0, ptr %12, align 4
  br label %24

24:                                               ; preds = %41, %23
  %25 = load i32, ptr %12, align 4
  %26 = getelementptr inbounds %"class.cv::Size_", ptr %6, i32 0, i32 0
  %27 = load i32, ptr %26, align 4
  %28 = icmp slt i32 %25, %27
  br i1 %28, label %29, label %44

29:                                               ; preds = %24
  %30 = load ptr, ptr %7, align 8
  %31 = load i32, ptr %12, align 4
  %32 = sext i32 %31 to i64
  %33 = getelementptr inbounds i8, ptr %30, i64 %32
  %34 = load i8, ptr %33, align 1
  %35 = call i16 @_ZN2cvL13saturate_castINS_6hfloatEEET_a(i8 noundef signext %34)
  %36 = getelementptr inbounds %"class.cv::hfloat", ptr %13, i32 0, i32 0
  store i16 %35, ptr %36, align 2
  %37 = load ptr, ptr %9, align 8
  %38 = load i32, ptr %12, align 4
  %39 = sext i32 %38 to i64
  %40 = getelementptr inbounds %"class.cv::hfloat", ptr %37, i64 %39
  call void @llvm.memcpy.p0.p0.i64(ptr align 2 %40, ptr align 2 %13, i64 2, i1 false)
  br label %41

41:                                               ; preds = %29
  %42 = load i32, ptr %12, align 4
  %43 = add nsw i32 %42, 1
  store i32 %43, ptr %12, align 4
  br label %24, !llvm.loop !112

44:                                               ; preds = %24
  br label %45

45:                                               ; preds = %44
  %46 = load i32, ptr %11, align 4
  %47 = add nsw i32 %46, 1
  store i32 %47, ptr %11, align 4
  %48 = load i64, ptr %8, align 8
  %49 = load ptr, ptr %7, align 8
  %50 = getelementptr inbounds i8, ptr %49, i64 %48
  store ptr %50, ptr %7, align 8
  %51 = load i64, ptr %10, align 8
  %52 = load ptr, ptr %9, align 8
  %53 = getelementptr inbounds %"class.cv::hfloat", ptr %52, i64 %51
  store ptr %53, ptr %9, align 8
  br label %18, !llvm.loop !113

54:                                               ; preds = %18
  ret void
}

; Function Attrs: mustprogress uwtable
define internal void @_ZN2cv12cpu_baselineL8cvt8s16fEPKhmS2_mPhmNS_5Size_IiEEPv(ptr noundef %0, i64 noundef %1, ptr noundef %2, i64 noundef %3, ptr noundef %4, i64 noundef %5, i64 %6, ptr noundef %7) #0 personality ptr @__gxx_personality_v0 {
  %9 = alloca %"class.cv::Size_", align 4
  %10 = alloca ptr, align 8
  %11 = alloca i64, align 8
  %12 = alloca ptr, align 8
  %13 = alloca i64, align 8
  %14 = alloca ptr, align 8
  %15 = alloca i64, align 8
  %16 = alloca ptr, align 8
  %17 = alloca %"class.cv::utils::trace::details::Region", align 8
  %18 = alloca ptr, align 8
  %19 = alloca ptr, align 8
  %20 = alloca %"class.cv::Size_", align 4
  %21 = alloca ptr, align 8
  %22 = alloca i32, align 4
  store i64 %6, ptr %9, align 4
  store ptr %0, ptr %10, align 8
  store i64 %1, ptr %11, align 8
  store ptr %2, ptr %12, align 8
  store i64 %3, ptr %13, align 8
  store ptr %4, ptr %14, align 8
  store i64 %5, ptr %15, align 8
  store ptr %7, ptr %16, align 8
  call void @_ZN2cv5utils5trace7details6RegionC1ERKNS3_21LocationStaticStorageE(ptr noundef nonnull align 8 dereferenceable(12) %17, ptr noundef nonnull align 8 dereferenceable(32) @_ZZN2cv12cpu_baselineL8cvt8s16fEPKhmS2_mPhmNS_5Size_IiEEPvE25__cv_trace_location_fn201)
  %23 = load ptr, ptr %10, align 8
  store ptr %23, ptr %18, align 8
  %24 = load ptr, ptr %14, align 8
  store ptr %24, ptr %19, align 8
  %25 = load ptr, ptr %18, align 8
  %26 = load i64, ptr %11, align 8
  %27 = load ptr, ptr %19, align 8
  %28 = load i64, ptr %15, align 8
  call void @llvm.memcpy.p0.p0.i64(ptr align 4 %20, ptr align 4 %9, i64 8, i1 false)
  %29 = load i64, ptr %20, align 4
  invoke void @_ZN2cv12cpu_baselineL5cvt1_IaNS_6hfloatENS_12hal_baseline5v_regIfLi4EEEEEvPKT_mPT0_mNS_5Size_IiEE(ptr noundef %25, i64 noundef %26, ptr noundef %27, i64 noundef %28, i64 %29)
          to label %30 unwind label %31

30:                                               ; preds = %8
  call void @_ZN2cv5utils5trace7details6RegionD2Ev(ptr noundef nonnull align 8 dereferenceable(12) %17) #11
  ret void

31:                                               ; preds = %8
  %32 = landingpad { ptr, i32 }
          cleanup
  %33 = extractvalue { ptr, i32 } %32, 0
  store ptr %33, ptr %21, align 8
  %34 = extractvalue { ptr, i32 } %32, 1
  store i32 %34, ptr %22, align 4
  call void @_ZN2cv5utils5trace7details6RegionD2Ev(ptr noundef nonnull align 8 dereferenceable(12) %17) #11
  br label %35

35:                                               ; preds = %31
  %36 = load ptr, ptr %21, align 8
  %37 = load i32, ptr %22, align 4
  %38 = insertvalue { ptr, i32 } poison, ptr %36, 0
  %39 = insertvalue { ptr, i32 } %38, i32 %37, 1
  resume { ptr, i32 } %39
}