; Function Attrs: mustprogress uwtable
define internal void @_ZN2cv12cpu_baselineL8cvt8s16fEPKhmS2_mPhmNS_5Size_IiEEPv(ptr nocapture noundef readonly %0, i64 noundef %1, ptr nocapture readnone %2, i64 %3, ptr nocapture noundef writeonly %4, i64 noundef %5, i64 %6, ptr nocapture readnone %7) #0 personality ptr @__gxx_personality_v0 {
  %9 = alloca %"class.cv::utils::trace::details::Region", align 8
  call void @_ZN2cv5utils5trace7details6RegionC1ERKNS3_21LocationStaticStorageE(ptr noundef nonnull align 8 dereferenceable(12) %9, ptr noundef nonnull align 8 dereferenceable(32) @_ZZN2cv12cpu_baselineL8cvt8s16fEPKhmS2_mPhmNS_5Size_IiEEPvE25__cv_trace_location_fn201)
  %.sroa.2.0.extract.shift.i = lshr i64 %6, 32
  %.sroa.2.0.extract.trunc.i = trunc nuw i64 %.sroa.2.0.extract.shift.i to i32
  %10 = lshr i64 %5, 1
  %11 = icmp sgt i32 %.sroa.2.0.extract.trunc.i, 0
  %.sroa.013.0.extract.trunc.i = trunc i64 %6 to i32
  %12 = icmp sgt i32 %.sroa.013.0.extract.trunc.i, 0
  %or.cond.i = and i1 %12, %11
  br i1 %or.cond.i, label %.preheader.us.preheader.i, label %_ZN2cv12cpu_baselineL5cvt1_IaNS_6hfloatENS_12hal_baseline5v_regIfLi4EEEEEvPKT_mPT0_mNS_5Size_IiEE.exit

.preheader.us.preheader.i:                        ; preds = %8
  %wide.trip.count.i = and i64 %6, 2147483647
  br label %.preheader.us.i

.preheader.us.i:                                  ; preds = %._crit_edge.us.i, %.preheader.us.preheader.i
  %.020.us.i = phi ptr [ %44, %._crit_edge.us.i ], [ %0, %.preheader.us.preheader.i ]
  %.01519.us.i = phi i32 [ %43, %._crit_edge.us.i ], [ 0, %.preheader.us.preheader.i ]
  %.01618.us.i = phi ptr [ %45, %._crit_edge.us.i ], [ %4, %.preheader.us.preheader.i ]
  br label %13

13:                                               ; preds = %_ZN2cvL13saturate_castINS_6hfloatEEET_a.exit.us.i, %.preheader.us.i
  %indvars.iv.i = phi i64 [ 0, %.preheader.us.i ], [ %indvars.iv.next.i, %_ZN2cvL13saturate_castINS_6hfloatEEET_a.exit.us.i ]
  %14 = getelementptr inbounds i8, ptr %.020.us.i, i64 %indvars.iv.i
  %15 = load i8, ptr %14, align 1
  %16 = sitofp i8 %15 to float
  %17 = call float @llvm.fabs.f32(float %16)
  %18 = bitcast float %17 to i32
  %19 = icmp ugt i32 %18, 1199570943
  br i1 %19, label %33, label %20

20:                                               ; preds = %13
  %21 = icmp ult i32 %18, 947912704
  br i1 %21, label %29, label %22

22:                                               ; preds = %20
  %23 = add nuw nsw i32 %18, 134221823
  %24 = lshr i32 %18, 13
  %25 = and i32 %24, 1
  %26 = add nuw nsw i32 %23, %25
  %27 = lshr i32 %26, 13
  %28 = trunc i32 %27 to i16
  br label %_ZN2cvL13saturate_castINS_6hfloatEEET_a.exit.us.i

29:                                               ; preds = %20
  %30 = fadd float %17, 5.000000e-01
  %31 = bitcast float %30 to i32
  %32 = trunc i32 %31 to i16
  br label %_ZN2cvL13saturate_castINS_6hfloatEEET_a.exit.us.i

33:                                               ; preds = %13
  %34 = icmp ugt i32 %18, 2139095040
  %35 = select i1 %34, i16 32256, i16 31744
  br label %_ZN2cvL13saturate_castINS_6hfloatEEET_a.exit.us.i

_ZN2cvL13saturate_castINS_6hfloatEEET_a.exit.us.i: ; preds = %33, %29, %22
  %36 = phi i16 [ %32, %29 ], [ %28, %22 ], [ %35, %33 ]
  %37 = bitcast float %16 to i32
  %38 = lshr i32 %37, 16
  %39 = trunc nuw i32 %38 to i16
  %40 = and i16 %39, -32768
  %41 = or i16 %36, %40
  %42 = getelementptr inbounds %"class.cv::hfloat", ptr %.01618.us.i, i64 %indvars.iv.i
  store i16 %41, ptr %42, align 2
  %indvars.iv.next.i = add nuw nsw i64 %indvars.iv.i, 1
  %exitcond.not.i = icmp eq i64 %indvars.iv.next.i, %wide.trip.count.i
  br i1 %exitcond.not.i, label %._crit_edge.us.i, label %13, !llvm.loop !110

._crit_edge.us.i:                                 ; preds = %_ZN2cvL13saturate_castINS_6hfloatEEET_a.exit.us.i
  %43 = add nuw nsw i32 %.01519.us.i, 1
  %44 = getelementptr inbounds i8, ptr %.020.us.i, i64 %1
  %45 = getelementptr inbounds %"class.cv::hfloat", ptr %.01618.us.i, i64 %10
  %exitcond24.not.i = icmp eq i32 %43, %.sroa.2.0.extract.trunc.i
  br i1 %exitcond24.not.i, label %_ZN2cv12cpu_baselineL5cvt1_IaNS_6hfloatENS_12hal_baseline5v_regIfLi4EEEEEvPKT_mPT0_mNS_5Size_IiEE.exit, label %.preheader.us.i, !llvm.loop !111

_ZN2cv12cpu_baselineL5cvt1_IaNS_6hfloatENS_12hal_baseline5v_regIfLi4EEEEEvPKT_mPT0_mNS_5Size_IiEE.exit: ; preds = %._crit_edge.us.i, %8
  %46 = getelementptr inbounds i8, ptr %9, i64 8
  %47 = load i32, ptr %46, align 8
  %.not.i = icmp eq i32 %47, 0
  br i1 %.not.i, label %_ZN2cv5utils5trace7details6RegionD2Ev.exit, label %48

48:                                               ; preds = %_ZN2cv12cpu_baselineL5cvt1_IaNS_6hfloatENS_12hal_baseline5v_regIfLi4EEEEEvPKT_mPT0_mNS_5Size_IiEE.exit
  invoke void @_ZN2cv5utils5trace7details6Region7destroyEv(ptr noundef nonnull align 8 dereferenceable(12) %9)
          to label %_ZN2cv5utils5trace7details6RegionD2Ev.exit unwind label %49

49:                                               ; preds = %48
  %50 = landingpad { ptr, i32 }
          catch ptr null
  %51 = extractvalue { ptr, i32 } %50, 0
  call void @__clang_call_terminate(ptr %51) #14
  unreachable

_ZN2cv5utils5trace7details6RegionD2Ev.exit:       ; preds = %_ZN2cv12cpu_baselineL5cvt1_IaNS_6hfloatENS_12hal_baseline5v_regIfLi4EEEEEvPKT_mPT0_mNS_5Size_IiEE.exit, %48
  ret void
}